; Function Attrs: mustprogress uwtable
define dso_local void @_ZN19cmUVJobServerClient4Impl20ReleaseImplicitTokenEv(ptr noundef nonnull align 8 dereferenceable(104) %0) local_unnamed_addr #3 align 2 {
  %2 = getelementptr inbounds i8, ptr %0, i64 100
  %3 = load i32, ptr %2, align 4
  %.not = icmp eq i32 %3, 0
  br i1 %.not, label %13, label %4

4:                                                ; preds = %1
  %5 = add i32 %3, -1
  store i32 %5, ptr %2, align 4
  %6 = icmp eq i32 %5, 0
  br i1 %6, label %7, label %_ZN19cmUVJobServerClient4Impl19DecrementNeedTokensEv.exit

7:                                                ; preds = %4
  %8 = load ptr, ptr %0, align 8
  %9 = getelementptr inbounds i8, ptr %8, i64 32
  %10 = load ptr, ptr %9, align 8
  tail call void %10(ptr noundef nonnull align 8 dereferenceable(104) %0)
  br label %_ZN19cmUVJobServerClient4Impl19DecrementNeedTokensEv.exit

_ZN19cmUVJobServerClient4Impl19DecrementNeedTokensEv.exit: ; preds = %4, %7
  %11 = getelementptr inbounds i8, ptr %0, i64 16
  %12 = tail call noundef i32 @_ZN2cm11uv_idle_ptr5startEPFvP9uv_idle_sE(ptr noundef nonnull align 8 dereferenceable(16) %11, ptr noundef nonnull @"_ZZN19cmUVJobServerClient4Impl20RequestImplicitTokenEvEN3$_08__invokeEP9uv_idle_s")
  br label %13

13:                                               ; preds = %_ZN19cmUVJobServerClient4Impl19DecrementNeedTokensEv.exit, %1
  ret void
}